target datalayout = "e-m:e-p270:32:32-p271:32:32-p272:64:64-i64:64-i128:128-f80:128-n8:16:32:64-S128"
target triple = "x86_64-pc-linux-gnu"

%struct.evhttp_connection = type { %struct.anon, ptr, %struct.event, ptr, i16, ptr, i16, ptr, i64, i64, i32, %struct.timeval, %struct.timeval, %struct.timeval, i32, i32, %struct.timeval, i32, ptr, %struct.evcon_requestq, ptr, ptr, ptr, ptr, %struct.event_callback, ptr, ptr, i32, ptr }
%struct.anon = type { ptr, ptr }
%struct.event = type { %struct.event_callback, %union.anon.1, i32, i16, i16, ptr, %union.anon.3, %struct.timeval }
%union.anon.1 = type { %struct.anon.2 }
%struct.anon.2 = type { ptr, ptr }
%union.anon.3 = type { %struct.anon.4 }
%struct.anon.4 = type { %struct.anon.5, %struct.timeval }
%struct.anon.5 = type { ptr, ptr }
%struct.timeval = type { i64, i64 }
%struct.evcon_requestq = type { ptr, ptr }
%struct.event_callback = type { %struct.anon.0, i16, i8, i8, %union.anon, ptr }
%struct.anon.0 = type { ptr, ptr }
%union.anon = type { ptr }
%struct.evhttp_request = type { %struct.anon.8, ptr, i32, ptr, ptr, ptr, i16, ptr, i32, i32, i64, i64, ptr, ptr, i8, i8, i32, ptr, ptr, i64, i8, ptr, ptr, ptr, ptr, ptr, ptr, ptr, ptr }
%struct.anon.8 = type { ptr, ptr }

@event_debug_logging_mask_ = external global i32, align 4
@.str.18 = private unnamed_addr constant [5 x i8] c"%x\0D\0A\00", align 1
@.str.19 = private unnamed_addr constant [3 x i8] c"\0D\0A\00", align 1
@.str.95 = private unnamed_addr constant [31 x i8] c"%s: preparing to write buffer\0A\00", align 1
@__func__.evhttp_write_buffer = private unnamed_addr constant [20 x i8] c"evhttp_write_buffer\00", align 1

; Function Attrs: nounwind uwtable
define internal void @evhttp_write_buffer(ptr noundef %0, ptr noundef %1, ptr noundef %2) #0 {
  %4 = alloca ptr, align 8
  %5 = alloca ptr, align 8
  %6 = alloca ptr, align 8
  store ptr %0, ptr %4, align 8
  store ptr %1, ptr %5, align 8
  store ptr %2, ptr %6, align 8
  br label %7

7:                                                ; preds = %3
  %8 = load i32, ptr @event_debug_logging_mask_, align 4
  %9 = icmp ne i32 %8, 0
  br i1 %9, label %10, label %11

10:                                               ; preds = %7
  call void (ptr, ...) @event_debugx_(ptr noundef @.str.95, ptr noundef @__func__.evhttp_write_buffer)
  br label %11

11:                                               ; preds = %10, %7
  br label %12

12:                                               ; preds = %11
  %13 = load ptr, ptr %5, align 8
  %14 = load ptr, ptr %4, align 8
  %15 = getelementptr inbounds nuw %struct.evhttp_connection, ptr %14, i32 0, i32 20
  store ptr %13, ptr %15, align 8
  %16 = load ptr, ptr %6, align 8
  %17 = load ptr, ptr %4, align 8
  %18 = getelementptr inbounds nuw %struct.evhttp_connection, ptr %17, i32 0, i32 21
  store ptr %16, ptr %18, align 8
  %19 = load ptr, ptr %4, align 8
  %20 = getelementptr inbounds nuw %struct.evhttp_connection, ptr %19, i32 0, i32 1
  %21 = load ptr, ptr %20, align 8
  %22 = load ptr, ptr %4, align 8
  call void @bufferevent_setcb(ptr noundef %21, ptr noundef null, ptr noundef @evhttp_write_cb, ptr noundef @evhttp_error_cb, ptr noundef %22)
  %23 = load ptr, ptr %4, align 8
  %24 = getelementptr inbounds nuw %struct.evhttp_connection, ptr %23, i32 0, i32 1
  %25 = load ptr, ptr %24, align 8
  %26 = call i32 @bufferevent_enable(ptr noundef %25, i16 noundef signext 6)
  ret void
}

; Function Attrs: nounwind uwtable
define internal i32 @evhttp_response_needs_body(ptr noundef %0) #0 {
  %2 = alloca ptr, align 8
  store ptr %0, ptr %2, align 8
  %3 = load ptr, ptr %2, align 8
  %4 = getelementptr inbounds nuw %struct.evhttp_request, ptr %3, i32 0, i32 16
  %5 = load i32, ptr %4, align 4
  %6 = icmp ne i32 %5, 204
  br i1 %6, label %7, label %32

7:                                                ; preds = %1
  %8 = load ptr, ptr %2, align 8
  %9 = getelementptr inbounds nuw %struct.evhttp_request, ptr %8, i32 0, i32 16
  %10 = load i32, ptr %9, align 4
  %11 = icmp ne i32 %10, 304
  br i1 %11, label %12, label %32

12:                                               ; preds = %7
  %13 = load ptr, ptr %2, align 8
  %14 = getelementptr inbounds nuw %struct.evhttp_request, ptr %13, i32 0, i32 16
  %15 = load i32, ptr %14, align 4
  %16 = icmp slt i32 %15, 100
  br i1 %16, label %22, label %17

17:                                               ; preds = %12
  %18 = load ptr, ptr %2, align 8
  %19 = getelementptr inbounds nuw %struct.evhttp_request, ptr %18, i32 0, i32 16
  %20 = load i32, ptr %19, align 4
  %21 = icmp sge i32 %20, 200
  br i1 %21, label %22, label %32

22:                                               ; preds = %17, %12
  %23 = load ptr, ptr %2, align 8
  %24 = getelementptr inbounds nuw %struct.evhttp_request, ptr %23, i32 0, i32 9
  %25 = load i32, ptr %24, align 4
  %26 = icmp ne i32 %25, 128
  br i1 %26, label %27, label %32

27:                                               ; preds = %22
  %28 = load ptr, ptr %2, align 8
  %29 = getelementptr inbounds nuw %struct.evhttp_request, ptr %28, i32 0, i32 9
  %30 = load i32, ptr %29, align 4
  %31 = icmp ne i32 %30, 4
  br label %32

32:                                               ; preds = %27, %22, %17, %7, %1
  %33 = phi i1 [ false, %22 ], [ false, %17 ], [ false, %7 ], [ false, %1 ], [ %31, %27 ]
  %34 = zext i1 %33 to i32
  ret i32 %34
}

; Function Attrs: nounwind uwtable
define void @evhttp_send_reply_chunk_with_cb(ptr noundef %0, ptr noundef %1, ptr noundef %2, ptr noundef %3) #0 {
  %5 = alloca ptr, align 8
  %6 = alloca ptr, align 8
  %7 = alloca ptr, align 8
  %8 = alloca ptr, align 8
  %9 = alloca ptr, align 8
  %10 = alloca ptr, align 8
  %11 = alloca i32, align 4
  store ptr %0, ptr %5, align 8
  store ptr %1, ptr %6, align 8
  store ptr %2, ptr %7, align 8
  store ptr %3, ptr %8, align 8
  call void @llvm.lifetime.start.p0(i64 8, ptr %9) #11
  %12 = load ptr, ptr %5, align 8
  %13 = getelementptr inbounds nuw %struct.evhttp_request, ptr %12, i32 0, i32 1
  %14 = load ptr, ptr %13, align 8
  store ptr %14, ptr %9, align 8
  call void @llvm.lifetime.start.p0(i64 8, ptr %10) #11
  %15 = load ptr, ptr %9, align 8
  %16 = icmp eq ptr %15, null
  br i1 %16, label %17, label %18

17:                                               ; preds = %4
  store i32 1, ptr %11, align 4
  br label %62

18:                                               ; preds = %4
  %19 = load ptr, ptr %9, align 8
  %20 = getelementptr inbounds nuw %struct.evhttp_connection, ptr %19, i32 0, i32 1
  %21 = load ptr, ptr %20, align 8
  %22 = call ptr @bufferevent_get_output(ptr noundef %21)
  store ptr %22, ptr %10, align 8
  %23 = load ptr, ptr %6, align 8
  %24 = call i64 @evbuffer_get_length(ptr noundef %23)
  %25 = icmp eq i64 %24, 0
  br i1 %25, label %26, label %27

26:                                               ; preds = %18
  store i32 1, ptr %11, align 4
  br label %62

27:                                               ; preds = %18
  %28 = load ptr, ptr %5, align 8
  %29 = call i32 @evhttp_response_needs_body(ptr noundef %28)
  %30 = icmp ne i32 %29, 0
  br i1 %30, label %32, label %31

31:                                               ; preds = %27
  store i32 1, ptr %11, align 4
  br label %62

32:                                               ; preds = %27
  %33 = load ptr, ptr %5, align 8
  %34 = getelementptr inbounds nuw %struct.evhttp_request, ptr %33, i32 0, i32 20
  %35 = load i8, ptr %34, align 8
  %36 = and i8 %35, 1
  %37 = zext i8 %36 to i32
  %38 = icmp ne i32 %37, 0
  br i1 %38, label %39, label %45

39:                                               ; preds = %32
  %40 = load ptr, ptr %10, align 8
  %41 = load ptr, ptr %6, align 8
  %42 = call i64 @evbuffer_get_length(ptr noundef %41)
  %43 = trunc i64 %42 to i32
  %44 = call i32 (ptr, ptr, ...) @evbuffer_add_printf(ptr noundef %40, ptr noundef @.str.18, i32 noundef %43)
  br label %45

45:                                               ; preds = %39, %32
  %46 = load ptr, ptr %10, align 8
  %47 = load ptr, ptr %6, align 8
  %48 = call i32 @evbuffer_add_buffer(ptr noundef %46, ptr noundef %47)
  %49 = load ptr, ptr %5, align 8
  %50 = getelementptr inbounds nuw %struct.evhttp_request, ptr %49, i32 0, i32 20
  %51 = load i8, ptr %50, align 8
  %52 = and i8 %51, 1
  %53 = zext i8 %52 to i32
  %54 = icmp ne i32 %53, 0
  br i1 %54, label %55, label %58

55:                                               ; preds = %45
  %56 = load ptr, ptr %10, align 8
  %57 = call i32 @evbuffer_add(ptr noundef %56, ptr noundef @.str.19, i64 noundef 2)
  br label %58

58:                                               ; preds = %55, %45
  %59 = load ptr, ptr %9, align 8
  %60 = load ptr, ptr %7, align 8
  %61 = load ptr, ptr %8, align 8
  call void @evhttp_write_buffer(ptr noundef %59, ptr noundef %60, ptr noundef %61)
  store i32 0, ptr %11, align 4
  br label %62

62:                                               ; preds = %58, %31, %26, %17
  call void @llvm.lifetime.end.p0(i64 8, ptr %10) #11
  call void @llvm.lifetime.end.p0(i64 8, ptr %9) #11
  %63 = load i32, ptr %11, align 4
  switch i32 %63, label %65 [
    i32 0, label %64
    i32 1, label %64
  ]

64:                                               ; preds = %62, %62
  ret void

65:                                               ; preds = %62
  unreachable
}