; Function Attrs: nounwind uwtable
define void @evhttp_send_reply_chunk_with_cb(ptr noundef readonly captures(none) %0, ptr noundef %1, ptr noundef %2, ptr noundef %3) local_unnamed_addr #0 {
  %5 = getelementptr inbounds nuw i8, ptr %0, i64 16
  %6 = load ptr, ptr %5, align 8
  %7 = icmp eq ptr %6, null
  br i1 %7, label %evhttp_response_needs_body.exit.thread, label %8

8:                                                ; preds = %4
  %9 = getelementptr inbounds nuw i8, ptr %6, i64 16
  %10 = load ptr, ptr %9, align 8
  %11 = tail call ptr @bufferevent_get_output(ptr noundef %10) #18
  %12 = tail call i64 @evbuffer_get_length(ptr noundef %1) #18
  %13 = icmp eq i64 %12, 0
  br i1 %13, label %evhttp_response_needs_body.exit.thread, label %14

14:                                               ; preds = %8
  %15 = getelementptr inbounds nuw i8, ptr %0, i64 116
  %16 = load i32, ptr %15, align 4
  switch i32 %16, label %17 [
    i32 204, label %evhttp_response_needs_body.exit.thread
    i32 304, label %evhttp_response_needs_body.exit.thread
  ]

17:                                               ; preds = %14
  %18 = add i32 %16, -200
  %or.cond.i = icmp ult i32 %18, -100
  br i1 %or.cond.i, label %19, label %evhttp_response_needs_body.exit.thread

19:                                               ; preds = %17
  %20 = getelementptr inbounds nuw i8, ptr %0, i64 76
  %21 = load i32, ptr %20, align 4
  switch i32 %21, label %22 [
    i32 128, label %evhttp_response_needs_body.exit.thread
    i32 4, label %evhttp_response_needs_body.exit.thread
  ]

22:                                               ; preds = %19
  %23 = getelementptr inbounds nuw i8, ptr %0, i64 144
  %24 = load i8, ptr %23, align 8
  %25 = and i8 %24, 1
  %.not15 = icmp eq i8 %25, 0
  br i1 %.not15, label %30, label %26

26:                                               ; preds = %22
  %27 = tail call i64 @evbuffer_get_length(ptr noundef %1) #18
  %28 = trunc i64 %27 to i32
  %29 = tail call i32 (ptr, ptr, ...) @evbuffer_add_printf(ptr noundef %11, ptr noundef nonnull @.str.18, i32 noundef %28) #18
  br label %30

30:                                               ; preds = %26, %22
  %31 = tail call i32 @evbuffer_add_buffer(ptr noundef %11, ptr noundef %1) #18
  %32 = load i8, ptr %23, align 8
  %33 = and i8 %32, 1
  %.not16 = icmp eq i8 %33, 0
  br i1 %.not16, label %36, label %34

34:                                               ; preds = %30
  %35 = tail call i32 @evbuffer_add(ptr noundef %11, ptr noundef nonnull @.str.19, i64 noundef 2) #18
  br label %36

36:                                               ; preds = %34, %30
  %37 = load i32, ptr @event_debug_logging_mask_, align 4
  %.not.i = icmp eq i32 %37, 0
  br i1 %.not.i, label %evhttp_write_buffer.exit, label %38

38:                                               ; preds = %36
  tail call void (ptr, ...) @event_debugx_(ptr noundef nonnull @.str.95, ptr noundef nonnull @__func__.evhttp_write_buffer) #18
  br label %evhttp_write_buffer.exit

evhttp_write_buffer.exit:                         ; preds = %36, %38
  %39 = getelementptr inbounds nuw i8, ptr %6, i64 312
  store ptr %2, ptr %39, align 8
  %40 = getelementptr inbounds nuw i8, ptr %6, i64 320
  store ptr %3, ptr %40, align 8
  %41 = load ptr, ptr %9, align 8
  tail call void @bufferevent_setcb(ptr noundef %41, ptr noundef null, ptr noundef nonnull @evhttp_write_cb, ptr noundef nonnull @evhttp_error_cb, ptr noundef nonnull %6) #18
  %42 = load ptr, ptr %9, align 8
  %43 = tail call i32 @bufferevent_enable(ptr noundef %42, i16 noundef signext 6) #18
  br label %evhttp_response_needs_body.exit.thread

evhttp_response_needs_body.exit.thread:           ; preds = %19, %19, %17, %14, %14, %8, %4, %evhttp_write_buffer.exit
  ret void
}